target datalayout = "e-m:e-p270:32:32-p271:32:32-p272:64:64-i64:64-i128:128-f80:128-n8:16:32:64-S128"
target triple = "x86_64-pc-linux-gnu"

%"class.OpenImageIO::v3_1_0::CSHA1" = type { [5 x i32], [2 x i32], [1 x i32], [64 x i8], [20 x i8], [3 x i32], [64 x i8], ptr }
%"class.OpenImageIO::v3_1_0::basic_string_view" = type { ptr, i64 }

@.str.7 = private unnamed_addr constant [5 x i8] c"%02X\00", align 1
@.str.8 = private unnamed_addr constant [6 x i8] c" %02X\00", align 1
@.str.9 = private unnamed_addr constant [3 x i8] c"%u\00", align 1
@.str.10 = private unnamed_addr constant [4 x i8] c" %u\00", align 1

; Function Attrs: noinline noreturn nounwind uwtable
define linkonce_odr hidden void @__clang_call_terminate(ptr noundef %0) #11 comdat {
  %2 = call ptr @__cxa_begin_catch(ptr %0) #4
  call void @_ZSt9terminatev() #15
  unreachable
}

; Function Attrs: mustprogress nounwind uwtable
define linkonce_odr noundef i64 @_ZNSt11char_traitsIcE6lengthEPKc(ptr noundef %0) #7 comdat align 2 {
  %2 = alloca ptr, align 8
  store ptr %0, ptr %2, align 8, !tbaa !21
  %3 = load ptr, ptr %2, align 8, !tbaa !21
  %4 = call i64 @strlen(ptr noundef %3) #4
  ret i64 %4
}

; Function Attrs: mustprogress nounwind uwtable
define linkonce_odr hidden void @_ZN11OpenImageIO6v3_1_017basic_string_viewIcSt11char_traitsIcEEC2EPKc(ptr noundef nonnull align 8 dereferenceable(16) %0, ptr noundef %1) unnamed_addr #7 comdat align 2 personality ptr @__gxx_personality_v0 {
  %3 = alloca ptr, align 8
  %4 = alloca ptr, align 8
  store ptr %0, ptr %3, align 8, !tbaa !45
  store ptr %1, ptr %4, align 8, !tbaa !21
  %5 = load ptr, ptr %3, align 8
  %6 = getelementptr inbounds nuw %"class.OpenImageIO::v3_1_0::basic_string_view", ptr %5, i32 0, i32 0
  %7 = load ptr, ptr %4, align 8, !tbaa !21
  store ptr %7, ptr %6, align 8, !tbaa !47
  %8 = getelementptr inbounds nuw %"class.OpenImageIO::v3_1_0::basic_string_view", ptr %5, i32 0, i32 1
  %9 = load ptr, ptr %4, align 8, !tbaa !21
  %10 = icmp ne ptr %9, null
  br i1 %10, label %11, label %15

11:                                               ; preds = %2
  %12 = load ptr, ptr %4, align 8, !tbaa !21
  %13 = invoke noundef i64 @_ZNSt11char_traitsIcE6lengthEPKc(ptr noundef %12)
          to label %14 unwind label %18

14:                                               ; preds = %11
  br label %16

15:                                               ; preds = %2
  br label %16

16:                                               ; preds = %15, %14
  %17 = phi i64 [ %13, %14 ], [ 0, %15 ]
  store i64 %17, ptr %8, align 8, !tbaa !49
  ret void

18:                                               ; preds = %11
  %19 = landingpad { ptr, i32 }
          catch ptr null
  %20 = extractvalue { ptr, i32 } %19, 0
  call void @__clang_call_terminate(ptr %20) #15
  unreachable
}

; Function Attrs: mustprogress nounwind uwtable
define hidden noundef zeroext i1 @_ZNK11OpenImageIO6v3_1_05CSHA110ReportHashEPcNS1_11REPORT_TYPEE(ptr noundef nonnull align 8 dereferenceable(200) %0, ptr noundef %1, i32 noundef %2) #7 align 2 {
  %4 = alloca i1, align 1
  %5 = alloca ptr, align 8
  %6 = alloca ptr, align 8
  %7 = alloca i32, align 4
  %8 = alloca [16 x i8], align 16
  %9 = alloca %"class.OpenImageIO::v3_1_0::basic_string_view", align 8
  %10 = alloca i64, align 8
  %11 = alloca %"class.OpenImageIO::v3_1_0::basic_string_view", align 8
  %12 = alloca %"class.OpenImageIO::v3_1_0::basic_string_view", align 8
  %13 = alloca i64, align 8
  %14 = alloca %"class.OpenImageIO::v3_1_0::basic_string_view", align 8
  %15 = alloca i32, align 4
  store ptr %0, ptr %5, align 8, !tbaa !20
  store ptr %1, ptr %6, align 8, !tbaa !21
  store i32 %2, ptr %7, align 4, !tbaa !35
  %16 = load ptr, ptr %5, align 8
  %17 = load ptr, ptr %6, align 8, !tbaa !21
  %18 = icmp eq ptr %17, null
  br i1 %18, label %19, label %20

19:                                               ; preds = %3
  store i1 false, ptr %4, align 1
  br label %103

20:                                               ; preds = %3
  call void @llvm.lifetime.start.p0(i64 16, ptr %8) #4
  %21 = load i32, ptr %7, align 4, !tbaa !35
  %22 = icmp eq i32 %21, 0
  br i1 %22, label %26, label %23

23:                                               ; preds = %20
  %24 = load i32, ptr %7, align 4, !tbaa !35
  %25 = icmp eq i32 %24, 2
  br i1 %25, label %26, label %67

26:                                               ; preds = %23, %20
  %27 = getelementptr inbounds [16 x i8], ptr %8, i64 0, i64 0
  %28 = getelementptr inbounds nuw %"class.OpenImageIO::v3_1_0::CSHA1", ptr %16, i32 0, i32 4
  %29 = getelementptr inbounds [20 x i8], ptr %28, i64 0, i64 0
  %30 = load i8, ptr %29, align 8, !tbaa !29
  %31 = zext i8 %30 to i32
  %32 = call i32 (ptr, i64, ptr, ...) @snprintf(ptr noundef %27, i64 noundef 15, ptr noundef @.str.7, i32 noundef %31) #4
  %33 = load ptr, ptr %6, align 8, !tbaa !21
  %34 = getelementptr inbounds [16 x i8], ptr %8, i64 0, i64 0
  call void @_ZN11OpenImageIO6v3_1_017basic_string_viewIcSt11char_traitsIcEEC2EPKc(ptr noundef nonnull align 8 dereferenceable(16) %9, ptr noundef %34) #4
  %35 = call noundef ptr @_ZN11OpenImageIO6v3_1_07Strutil11safe_strcpyEPcNS0_17basic_string_viewIcSt11char_traitsIcEEEm(ptr noundef %33, ptr noundef %9, i64 noundef 83) #4
  call void @llvm.lifetime.start.p0(i64 8, ptr %10) #4
  store i64 1, ptr %10, align 8, !tbaa !9
  br label %36

36:                                               ; preds = %63, %26
  %37 = load i64, ptr %10, align 8, !tbaa !9
  %38 = icmp ult i64 %37, 20
  br i1 %38, label %40, label %39

39:                                               ; preds = %36
  call void @llvm.lifetime.end.p0(i64 8, ptr %10) #4
  br label %66

40:                                               ; preds = %36
  %41 = load i32, ptr %7, align 4, !tbaa !35
  %42 = icmp eq i32 %41, 0
  br i1 %42, label %43, label %51

43:                                               ; preds = %40
  %44 = getelementptr inbounds [16 x i8], ptr %8, i64 0, i64 0
  %45 = getelementptr inbounds nuw %"class.OpenImageIO::v3_1_0::CSHA1", ptr %16, i32 0, i32 4
  %46 = load i64, ptr %10, align 8, !tbaa !9
  %47 = getelementptr inbounds nuw [20 x i8], ptr %45, i64 0, i64 %46
  %48 = load i8, ptr %47, align 1, !tbaa !29
  %49 = zext i8 %48 to i32
  %50 = call i32 (ptr, i64, ptr, ...) @snprintf(ptr noundef %44, i64 noundef 15, ptr noundef @.str.8, i32 noundef %49) #4
  br label %59

51:                                               ; preds = %40
  %52 = getelementptr inbounds [16 x i8], ptr %8, i64 0, i64 0
  %53 = getelementptr inbounds nuw %"class.OpenImageIO::v3_1_0::CSHA1", ptr %16, i32 0, i32 4
  %54 = load i64, ptr %10, align 8, !tbaa !9
  %55 = getelementptr inbounds nuw [20 x i8], ptr %53, i64 0, i64 %54
  %56 = load i8, ptr %55, align 1, !tbaa !29
  %57 = zext i8 %56 to i32
  %58 = call i32 (ptr, i64, ptr, ...) @snprintf(ptr noundef %52, i64 noundef 15, ptr noundef @.str.7, i32 noundef %57) #4
  br label %59

59:                                               ; preds = %51, %43
  %60 = load ptr, ptr %6, align 8, !tbaa !21
  %61 = getelementptr inbounds [16 x i8], ptr %8, i64 0, i64 0
  call void @_ZN11OpenImageIO6v3_1_017basic_string_viewIcSt11char_traitsIcEEC2EPKc(ptr noundef nonnull align 8 dereferenceable(16) %11, ptr noundef %61) #4
  %62 = call noundef ptr @_ZN11OpenImageIO6v3_1_07Strutil11safe_strcatEPcNS0_17basic_string_viewIcSt11char_traitsIcEEEm(ptr noundef %60, ptr noundef %11, i64 noundef 83) #4
  br label %63

63:                                               ; preds = %59
  %64 = load i64, ptr %10, align 8, !tbaa !9
  %65 = add i64 %64, 1
  store i64 %65, ptr %10, align 8, !tbaa !9
  br label %36, !llvm.loop !43

66:                                               ; preds = %39
  br label %101

67:                                               ; preds = %23
  %68 = load i32, ptr %7, align 4, !tbaa !35
  %69 = icmp eq i32 %68, 1
  br i1 %69, label %70, label %99

70:                                               ; preds = %67
  %71 = getelementptr inbounds [16 x i8], ptr %8, i64 0, i64 0
  %72 = getelementptr inbounds nuw %"class.OpenImageIO::v3_1_0::CSHA1", ptr %16, i32 0, i32 4
  %73 = getelementptr inbounds [20 x i8], ptr %72, i64 0, i64 0
  %74 = load i8, ptr %73, align 8, !tbaa !29
  %75 = zext i8 %74 to i32
  %76 = call i32 (ptr, i64, ptr, ...) @snprintf(ptr noundef %71, i64 noundef 15, ptr noundef @.str.9, i32 noundef %75) #4
  %77 = load ptr, ptr %6, align 8, !tbaa !21
  %78 = getelementptr inbounds [16 x i8], ptr %8, i64 0, i64 0
  call void @_ZN11OpenImageIO6v3_1_017basic_string_viewIcSt11char_traitsIcEEC2EPKc(ptr noundef nonnull align 8 dereferenceable(16) %12, ptr noundef %78) #4
  %79 = call noundef ptr @_ZN11OpenImageIO6v3_1_07Strutil11safe_strcpyEPcNS0_17basic_string_viewIcSt11char_traitsIcEEEm(ptr noundef %77, ptr noundef %12, i64 noundef 83) #4
  call void @llvm.lifetime.start.p0(i64 8, ptr %13) #4
  store i64 1, ptr %13, align 8, !tbaa !9
  br label %80

80:                                               ; preds = %95, %70
  %81 = load i64, ptr %13, align 8, !tbaa !9
  %82 = icmp ult i64 %81, 20
  br i1 %82, label %84, label %83

83:                                               ; preds = %80
  call void @llvm.lifetime.end.p0(i64 8, ptr %13) #4
  br label %98

84:                                               ; preds = %80
  %85 = getelementptr inbounds [16 x i8], ptr %8, i64 0, i64 0
  %86 = getelementptr inbounds nuw %"class.OpenImageIO::v3_1_0::CSHA1", ptr %16, i32 0, i32 4
  %87 = load i64, ptr %13, align 8, !tbaa !9
  %88 = getelementptr inbounds nuw [20 x i8], ptr %86, i64 0, i64 %87
  %89 = load i8, ptr %88, align 1, !tbaa !29
  %90 = zext i8 %89 to i32
  %91 = call i32 (ptr, i64, ptr, ...) @snprintf(ptr noundef %85, i64 noundef 15, ptr noundef @.str.10, i32 noundef %90) #4
  %92 = load ptr, ptr %6, align 8, !tbaa !21
  %93 = getelementptr inbounds [16 x i8], ptr %8, i64 0, i64 0
  call void @_ZN11OpenImageIO6v3_1_017basic_string_viewIcSt11char_traitsIcEEC2EPKc(ptr noundef nonnull align 8 dereferenceable(16) %14, ptr noundef %93) #4
  %94 = call noundef ptr @_ZN11OpenImageIO6v3_1_07Strutil11safe_strcatEPcNS0_17basic_string_viewIcSt11char_traitsIcEEEm(ptr noundef %92, ptr noundef %14, i64 noundef 83) #4
  br label %95

95:                                               ; preds = %84
  %96 = load i64, ptr %13, align 8, !tbaa !9
  %97 = add i64 %96, 1
  store i64 %97, ptr %13, align 8, !tbaa !9
  br label %80, !llvm.loop !44

98:                                               ; preds = %83
  br label %100

99:                                               ; preds = %67
  store i1 false, ptr %4, align 1
  store i32 1, ptr %15, align 4
  br label %102

100:                                              ; preds = %98
  br label %101

101:                                              ; preds = %100, %66
  store i1 true, ptr %4, align 1
  store i32 1, ptr %15, align 4
  br label %102

102:                                              ; preds = %101, %99
  call void @llvm.lifetime.end.p0(i64 16, ptr %8) #4
  br label %103

103:                                              ; preds = %102, %19
  %104 = load i1, ptr %4, align 1
  ret i1 %104
}