; Function Attrs: mustprogress nounwind uwtable
define hidden noundef zeroext i1 @_ZNK11OpenImageIO6v3_1_05CSHA110ReportHashEPcNS1_11REPORT_TYPEE(ptr noundef nonnull readonly align 8 captures(none) dereferenceable(200) %0, ptr noundef %1, i32 noundef %2) local_unnamed_addr #7 align 2 personality ptr @__gxx_personality_v0 {
  %4 = alloca [16 x i8], align 16
  %5 = alloca %"class.OpenImageIO::v3_1_0::basic_string_view", align 8
  %6 = alloca %"class.OpenImageIO::v3_1_0::basic_string_view", align 8
  %7 = alloca %"class.OpenImageIO::v3_1_0::basic_string_view", align 8
  %8 = alloca %"class.OpenImageIO::v3_1_0::basic_string_view", align 8
  %9 = icmp eq ptr %1, null
  br i1 %9, label %52, label %10

10:                                               ; preds = %3
  call void @llvm.lifetime.start.p0(i64 16, ptr nonnull %4) #22
  switch i32 %2, label %.loopexit [
    i32 2, label %11
    i32 0, label %11
    i32 1, label %35
  ]

11:                                               ; preds = %10, %10
  %12 = icmp eq i32 %2, 0
  %13 = getelementptr inbounds nuw i8, ptr %0, i64 96
  %14 = load i8, ptr %13, align 8, !tbaa !22
  %15 = zext i8 %14 to i32
  %16 = call i32 (ptr, i64, ptr, ...) @snprintf(ptr noundef nonnull dereferenceable(1) %4, i64 noundef 15, ptr noundef nonnull @.str.7, i32 noundef %15) #22
  store ptr %4, ptr %5, align 8, !tbaa !33
  %17 = call noundef i64 @strlen(ptr noundef nonnull dereferenceable(1) %4) #22
  %18 = getelementptr inbounds nuw i8, ptr %5, i64 8
  store i64 %17, ptr %18, align 8, !tbaa !35
  %19 = call noundef ptr @_ZN11OpenImageIO6v3_1_07Strutil11safe_strcpyEPcNS0_17basic_string_viewIcSt11char_traitsIcEEEm(ptr noundef nonnull %1, ptr noundef nonnull %5, i64 noundef 83) #22
  %20 = getelementptr inbounds nuw i8, ptr %6, i64 8
  br i1 %12, label %.split.us, label %.split

.split.us:                                        ; preds = %11, %.split.us
  %.01824.us = phi i64 [ %27, %.split.us ], [ 1, %11 ]
  %21 = getelementptr inbounds nuw [20 x i8], ptr %13, i64 0, i64 %.01824.us
  %22 = load i8, ptr %21, align 1, !tbaa !22
  %23 = zext i8 %22 to i32
  %24 = call i32 (ptr, i64, ptr, ...) @snprintf(ptr noundef nonnull dereferenceable(1) %4, i64 noundef 15, ptr noundef nonnull @.str.8, i32 noundef %23) #22
  store ptr %4, ptr %6, align 8, !tbaa !33
  %25 = call noundef i64 @strlen(ptr noundef nonnull dereferenceable(1) %4) #22
  store i64 %25, ptr %20, align 8, !tbaa !35
  %26 = call noundef ptr @_ZN11OpenImageIO6v3_1_07Strutil11safe_strcatEPcNS0_17basic_string_viewIcSt11char_traitsIcEEEm(ptr noundef nonnull %1, ptr noundef nonnull %6, i64 noundef 83) #22
  %27 = add nuw nsw i64 %.01824.us, 1
  %exitcond28.not = icmp eq i64 %27, 20
  br i1 %exitcond28.not, label %.loopexit, label %.split.us, !llvm.loop !36

.split:                                           ; preds = %11, %.split
  %.01824 = phi i64 [ %34, %.split ], [ 1, %11 ]
  %28 = getelementptr inbounds nuw [20 x i8], ptr %13, i64 0, i64 %.01824
  %29 = load i8, ptr %28, align 1, !tbaa !22
  %30 = zext i8 %29 to i32
  %31 = call i32 (ptr, i64, ptr, ...) @snprintf(ptr noundef nonnull dereferenceable(1) %4, i64 noundef 15, ptr noundef nonnull @.str.7, i32 noundef %30) #22
  store ptr %4, ptr %6, align 8, !tbaa !33
  %32 = call noundef i64 @strlen(ptr noundef nonnull dereferenceable(1) %4) #22
  store i64 %32, ptr %20, align 8, !tbaa !35
  %33 = call noundef ptr @_ZN11OpenImageIO6v3_1_07Strutil11safe_strcatEPcNS0_17basic_string_viewIcSt11char_traitsIcEEEm(ptr noundef nonnull %1, ptr noundef nonnull %6, i64 noundef 83) #22
  %34 = add nuw nsw i64 %.01824, 1
  %exitcond27.not = icmp eq i64 %34, 20
  br i1 %exitcond27.not, label %.loopexit, label %.split, !llvm.loop !36

35:                                               ; preds = %10
  %36 = getelementptr inbounds nuw i8, ptr %0, i64 96
  %37 = load i8, ptr %36, align 8, !tbaa !22
  %38 = zext i8 %37 to i32
  %39 = call i32 (ptr, i64, ptr, ...) @snprintf(ptr noundef nonnull dereferenceable(1) %4, i64 noundef 15, ptr noundef nonnull @.str.9, i32 noundef %38) #22
  store ptr %4, ptr %7, align 8, !tbaa !33
  %40 = call noundef i64 @strlen(ptr noundef nonnull dereferenceable(1) %4) #22
  %41 = getelementptr inbounds nuw i8, ptr %7, i64 8
  store i64 %40, ptr %41, align 8, !tbaa !35
  %42 = call noundef ptr @_ZN11OpenImageIO6v3_1_07Strutil11safe_strcpyEPcNS0_17basic_string_viewIcSt11char_traitsIcEEEm(ptr noundef nonnull %1, ptr noundef nonnull %7, i64 noundef 83) #22
  %43 = getelementptr inbounds nuw i8, ptr %8, i64 8
  br label %44

44:                                               ; preds = %35, %44
  %.023 = phi i64 [ 1, %35 ], [ %51, %44 ]
  %45 = getelementptr inbounds nuw [20 x i8], ptr %36, i64 0, i64 %.023
  %46 = load i8, ptr %45, align 1, !tbaa !22
  %47 = zext i8 %46 to i32
  %48 = call i32 (ptr, i64, ptr, ...) @snprintf(ptr noundef nonnull dereferenceable(1) %4, i64 noundef 15, ptr noundef nonnull @.str.10, i32 noundef %47) #22
  store ptr %4, ptr %8, align 8, !tbaa !33
  %49 = call noundef i64 @strlen(ptr noundef nonnull dereferenceable(1) %4) #22
  store i64 %49, ptr %43, align 8, !tbaa !35
  %50 = call noundef ptr @_ZN11OpenImageIO6v3_1_07Strutil11safe_strcatEPcNS0_17basic_string_viewIcSt11char_traitsIcEEEm(ptr noundef nonnull %1, ptr noundef nonnull %8, i64 noundef 83) #22
  %51 = add nuw nsw i64 %.023, 1
  %exitcond.not = icmp eq i64 %51, 20
  br i1 %exitcond.not, label %.loopexit, label %44, !llvm.loop !37

.loopexit:                                        ; preds = %44, %.split, %.split.us, %10
  %.1 = phi i1 [ false, %10 ], [ true, %.split.us ], [ true, %.split ], [ true, %44 ]
  call void @llvm.lifetime.end.p0(i64 16, ptr nonnull %4) #22
  br label %52

52:                                               ; preds = %3, %.loopexit
  %.019 = phi i1 [ %.1, %.loopexit ], [ false, %3 ]
  ret i1 %.019
}